; Function Attrs: mustprogress uwtable
define noundef nonnull align 8 dereferenceable(8) ptr @_ZN7mitsuba10filesystemlsERNSt3__113basic_ostreamIcNS1_11char_traitsIcEEEERKNS0_4pathE(ptr noundef nonnull returned align 8 dereferenceable(8) %0, ptr nocapture noundef nonnull readonly align 8 dereferenceable(25) %1) local_unnamed_addr #0 personality ptr @__gxx_personality_v0 {
  %3 = alloca %"class.std::__1::basic_string", align 8
  %4 = alloca %"class.std::__1::basic_string", align 8
  call void @llvm.lifetime.start.p0(i64 24, ptr nonnull %3)
  call void @_ZNK7mitsuba10filesystem4path3strEv(ptr dead_on_unwind nonnull writable sret(%"class.std::__1::basic_string") align 8 %3, ptr noundef nonnull align 8 dereferenceable(25) %1), !noalias !36
  invoke void @_ZNSt3__112basic_stringIcNS_11char_traitsIcEENS_9allocatorIcEEEC1ERKS5_(ptr noundef nonnull align 8 dereferenceable(24) %4, ptr noundef nonnull align 8 dereferenceable(24) %3)
          to label %_ZNK7mitsuba10filesystem4path6stringEv.exit unwind label %5

common.resume:                                    ; preds = %19, %5
  %.sink = phi ptr [ %4, %19 ], [ %3, %5 ]
  %common.resume.op = phi { ptr, i32 } [ %20, %19 ], [ %6, %5 ]
  call void @_ZNSt3__112basic_stringIcNS_11char_traitsIcEENS_9allocatorIcEEED1Ev(ptr noundef nonnull align 8 dereferenceable(24) %.sink) #16
  resume { ptr, i32 } %common.resume.op

5:                                                ; preds = %2
  %6 = landingpad { ptr, i32 }
          cleanup
  br label %common.resume

_ZNK7mitsuba10filesystem4path6stringEv.exit:      ; preds = %2
  call void @_ZNSt3__112basic_stringIcNS_11char_traitsIcEENS_9allocatorIcEEED1Ev(ptr noundef nonnull align 8 dereferenceable(24) %3) #16
  call void @llvm.lifetime.end.p0(i64 24, ptr nonnull %3)
  %7 = load i8, ptr %4, align 8
  %8 = and i8 %7, 1
  %.not.i.i.i = icmp eq i8 %8, 0
  %9 = getelementptr inbounds i8, ptr %4, i64 16
  %10 = load ptr, ptr %9, align 8
  %11 = getelementptr inbounds i8, ptr %4, i64 1
  %12 = select i1 %.not.i.i.i, ptr %11, ptr %10
  %13 = getelementptr inbounds i8, ptr %4, i64 8
  %14 = load i64, ptr %13, align 8
  %15 = lshr i8 %7, 1
  %16 = zext nneg i8 %15 to i64
  %17 = select i1 %.not.i.i.i, i64 %16, i64 %14
  %18 = invoke noundef nonnull align 8 dereferenceable(8) ptr @_ZNSt3__124__put_character_sequenceB8ne190000IcNS_11char_traitsIcEEEERNS_13basic_ostreamIT_T0_EES7_PKS4_m(ptr noundef nonnull align 8 dereferenceable(8) %0, ptr noundef %12, i64 noundef %17)
          to label %_ZNSt3__1lsB8ne190000IcNS_11char_traitsIcEENS_9allocatorIcEEEERNS_13basic_ostreamIT_T0_EES9_RKNS_12basic_stringIS6_S7_T1_EE.exit unwind label %19

_ZNSt3__1lsB8ne190000IcNS_11char_traitsIcEENS_9allocatorIcEEEERNS_13basic_ostreamIT_T0_EES9_RKNS_12basic_stringIS6_S7_T1_EE.exit: ; preds = %_ZNK7mitsuba10filesystem4path6stringEv.exit
  call void @_ZNSt3__112basic_stringIcNS_11char_traitsIcEENS_9allocatorIcEEED1Ev(ptr noundef nonnull align 8 dereferenceable(24) %4) #16
  ret ptr %0

19:                                               ; preds = %_ZNK7mitsuba10filesystem4path6stringEv.exit
  %20 = landingpad { ptr, i32 }
          cleanup
  br label %common.resume
}